target datalayout = "e-m:e-p270:32:32-p271:32:32-p272:64:64-i64:64-i128:128-f80:128-n8:16:32:64-S128"
target triple = "x86_64-pc-linux-gnu"

%class.fixed_bit_vector = type { [1 x i32] }
%"class.std::ios_base" = type { ptr, i64, i64, i32, i32, i32, ptr, %"struct.std::ios_base::_Words", [8 x %"struct.std::ios_base::_Words"], i32, ptr, %"class.std::locale" }
%"struct.std::ios_base::_Words" = type { ptr, i64 }
%"class.std::locale" = type { ptr }

@.str = private unnamed_addr constant [100 x i8] c"generated/home/dtcxzyw/WorkSpace/Projects/compilers/llvm-opt-benchmark/bench/z3/z3/src/util/tbv.cpp\00", align 1
@.str.1 = private unnamed_addr constant [29 x i8] c"UNEXPECTED CODE WAS REACHED.\00", align 1

; Function Attrs: mustprogress nounwind uwtable
define linkonce_odr hidden noundef i32 @_ZN16fixed_bit_vector12get_pos_maskEj(i32 noundef %0) #4 comdat align 2 {
  %2 = alloca i32, align 4
  store i32 %0, ptr %2, align 4, !tbaa !20
  %3 = load i32, ptr %2, align 4, !tbaa !20
  %4 = urem i32 %3, 32
  %5 = shl i32 1, %4
  ret i32 %5
}

; Function Attrs: mustprogress nounwind uwtable
define linkonce_odr hidden noundef i32 @_ZNK16fixed_bit_vector12get_bit_wordEj(ptr noundef nonnull align 4 dereferenceable(4) %0, i32 noundef %1) #4 comdat align 2 {
  %3 = alloca ptr, align 8
  %4 = alloca i32, align 4
  store ptr %0, ptr %3, align 8, !tbaa !16
  store i32 %1, ptr %4, align 4, !tbaa !20
  %5 = load ptr, ptr %3, align 8
  %6 = getelementptr inbounds nuw %class.fixed_bit_vector, ptr %5, i32 0, i32 0
  %7 = load i32, ptr %4, align 4, !tbaa !20
  %8 = udiv i32 %7, 32
  %9 = zext i32 %8 to i64
  %10 = getelementptr inbounds nuw [1 x i32], ptr %6, i64 0, i64 %9
  %11 = load i32, ptr %10, align 4, !tbaa !20
  ret i32 %11
}

; Function Attrs: mustprogress nounwind uwtable
define linkonce_odr hidden noundef i64 @_ZNKSt8ios_base5widthEv(ptr noundef nonnull align 8 dereferenceable(216) %0) #4 comdat align 2 {
  %2 = alloca ptr, align 8
  store ptr %0, ptr %2, align 8, !tbaa !126
  %3 = load ptr, ptr %2, align 8
  %4 = getelementptr inbounds nuw %"class.std::ios_base", ptr %3, i32 0, i32 2
  %5 = load i64, ptr %4, align 8, !tbaa !128
  ret i64 %5
}

; Function Attrs: mustprogress uwtable
define linkonce_odr hidden noundef zeroext i1 @_ZNK16fixed_bit_vector3getEj(ptr noundef nonnull align 4 dereferenceable(4) %0, i32 noundef %1) #6 comdat align 2 {
  %3 = alloca ptr, align 8
  %4 = alloca i32, align 4
  store ptr %0, ptr %3, align 8, !tbaa !16
  store i32 %1, ptr %4, align 4, !tbaa !20
  %5 = load ptr, ptr %3, align 8
  %6 = load i32, ptr %4, align 4, !tbaa !20
  %7 = call noundef i32 @_ZNK16fixed_bit_vector12get_bit_wordEj(ptr noundef nonnull align 4 dereferenceable(4) %5, i32 noundef %6)
  %8 = load i32, ptr %4, align 4, !tbaa !20
  %9 = call noundef i32 @_ZN16fixed_bit_vector12get_pos_maskEj(i32 noundef %8)
  %10 = and i32 %7, %9
  %11 = icmp ne i32 %10, 0
  ret i1 %11
}

; Function Attrs: inlinehint mustprogress uwtable
define available_externally noundef nonnull align 8 dereferenceable(8) ptr @_ZStlsISt11char_traitsIcEERSt13basic_ostreamIcT_ES5_c(ptr noundef nonnull align 8 dereferenceable(8) %0, i8 noundef signext %1) #8 {
  %3 = alloca ptr, align 8
  %4 = alloca ptr, align 8
  %5 = alloca i8, align 1
  store ptr %0, ptr %4, align 8, !tbaa !69
  store i8 %1, ptr %5, align 1, !tbaa !32
  %6 = load ptr, ptr %4, align 8, !tbaa !69
  %7 = load ptr, ptr %6, align 8, !tbaa !72
  %8 = getelementptr i8, ptr %7, i64 -24
  %9 = load i64, ptr %8, align 8
  %10 = getelementptr inbounds i8, ptr %6, i64 %9
  %11 = call noundef i64 @_ZNKSt8ios_base5widthEv(ptr noundef nonnull align 8 dereferenceable(216) %10)
  %12 = icmp ne i64 %11, 0
  br i1 %12, label %13, label %16

13:                                               ; preds = %2
  %14 = load ptr, ptr %4, align 8, !tbaa !69
  %15 = call noundef nonnull align 8 dereferenceable(8) ptr @_ZSt16__ostream_insertIcSt11char_traitsIcEERSt13basic_ostreamIT_T0_ES6_PKS3_l(ptr noundef nonnull align 8 dereferenceable(8) %14, ptr noundef %5, i64 noundef 1)
  store ptr %15, ptr %3, align 8
  br label %21

16:                                               ; preds = %2
  %17 = load ptr, ptr %4, align 8, !tbaa !69
  %18 = load i8, ptr %5, align 1, !tbaa !32
  %19 = call noundef nonnull align 8 dereferenceable(8) ptr @_ZNSo3putEc(ptr noundef nonnull align 8 dereferenceable(8) %17, i8 noundef signext %18)
  %20 = load ptr, ptr %4, align 8, !tbaa !69
  store ptr %20, ptr %3, align 8
  br label %21

21:                                               ; preds = %16, %13
  %22 = load ptr, ptr %3, align 8
  ret ptr %22
}

; Function Attrs: mustprogress uwtable
define linkonce_odr hidden noundef i32 @_ZNK3tbv3getEj(ptr noundef nonnull align 4 dereferenceable(4) %0, i32 noundef %1) #6 comdat align 2 {
  %3 = alloca ptr, align 8
  %4 = alloca i32, align 4
  store ptr %0, ptr %3, align 8, !tbaa !14
  store i32 %1, ptr %4, align 4, !tbaa !20
  %5 = load ptr, ptr %3, align 8
  %6 = load i32, ptr %4, align 4, !tbaa !20
  %7 = mul i32 %6, 2
  store i32 %7, ptr %4, align 4, !tbaa !20
  %8 = load i32, ptr %4, align 4, !tbaa !20
  %9 = call noundef zeroext i1 @_ZNK16fixed_bit_vector3getEj(ptr noundef nonnull align 4 dereferenceable(4) %5, i32 noundef %8)
  %10 = zext i1 %9 to i32
  %11 = shl i32 %10, 1
  %12 = load i32, ptr %4, align 4, !tbaa !20
  %13 = add i32 %12, 1
  %14 = call noundef zeroext i1 @_ZNK16fixed_bit_vector3getEj(ptr noundef nonnull align 4 dereferenceable(4) %5, i32 noundef %13)
  %15 = zext i1 %14 to i32
  %16 = or i32 %11, %15
  ret i32 %16
}

; Function Attrs: mustprogress uwtable
define hidden noundef nonnull align 8 dereferenceable(8) ptr @_ZNK11tbv_manager7displayERSoRK3tbvjj(ptr noundef nonnull align 8 dereferenceable(552) %0, ptr noundef nonnull align 8 dereferenceable(8) %1, ptr noundef nonnull align 4 dereferenceable(4) %2, i32 noundef %3, i32 noundef %4) #6 align 2 {
  %6 = alloca ptr, align 8
  %7 = alloca ptr, align 8
  %8 = alloca ptr, align 8
  %9 = alloca i32, align 4
  %10 = alloca i32, align 4
  %11 = alloca i32, align 4
  store ptr %0, ptr %6, align 8, !tbaa !7
  store ptr %1, ptr %7, align 8, !tbaa !69
  store ptr %2, ptr %8, align 8, !tbaa !14
  store i32 %3, ptr %9, align 4, !tbaa !20
  store i32 %4, ptr %10, align 4, !tbaa !20
  call void @llvm.lifetime.start.p0(i64 4, ptr %11) #3
  %12 = load i32, ptr %9, align 4, !tbaa !20
  %13 = add i32 %12, 1
  store i32 %13, ptr %11, align 4, !tbaa !20
  br label %14

14:                                               ; preds = %37, %5
  %15 = load i32, ptr %11, align 4, !tbaa !20
  %16 = add i32 %15, -1
  store i32 %16, ptr %11, align 4, !tbaa !20
  %17 = load i32, ptr %10, align 4, !tbaa !20
  %18 = icmp ugt i32 %15, %17
  br i1 %18, label %20, label %19

19:                                               ; preds = %14
  call void @llvm.lifetime.end.p0(i64 4, ptr %11) #3
  br label %38

20:                                               ; preds = %14
  %21 = load ptr, ptr %8, align 8, !tbaa !14
  %22 = load i32, ptr %11, align 4, !tbaa !20
  %23 = call noundef i32 @_ZNK3tbv3getEj(ptr noundef nonnull align 4 dereferenceable(4) %21, i32 noundef %22)
  switch i32 %23, label %36 [
    i32 1, label %24
    i32 2, label %27
    i32 3, label %30
    i32 0, label %33
  ]

24:                                               ; preds = %20
  %25 = load ptr, ptr %7, align 8, !tbaa !69
  %26 = call noundef nonnull align 8 dereferenceable(8) ptr @_ZStlsISt11char_traitsIcEERSt13basic_ostreamIcT_ES5_c(ptr noundef nonnull align 8 dereferenceable(8) %25, i8 noundef signext 48)
  br label %37

27:                                               ; preds = %20
  %28 = load ptr, ptr %7, align 8, !tbaa !69
  %29 = call noundef nonnull align 8 dereferenceable(8) ptr @_ZStlsISt11char_traitsIcEERSt13basic_ostreamIcT_ES5_c(ptr noundef nonnull align 8 dereferenceable(8) %28, i8 noundef signext 49)
  br label %37

30:                                               ; preds = %20
  %31 = load ptr, ptr %7, align 8, !tbaa !69
  %32 = call noundef nonnull align 8 dereferenceable(8) ptr @_ZStlsISt11char_traitsIcEERSt13basic_ostreamIcT_ES5_c(ptr noundef nonnull align 8 dereferenceable(8) %31, i8 noundef signext 120)
  br label %37

33:                                               ; preds = %20
  %34 = load ptr, ptr %7, align 8, !tbaa !69
  %35 = call noundef nonnull align 8 dereferenceable(8) ptr @_ZStlsISt11char_traitsIcEERSt13basic_ostreamIcT_ES5_c(ptr noundef nonnull align 8 dereferenceable(8) %34, i8 noundef signext 122)
  br label %37

36:                                               ; preds = %20
  call void @_Z26notify_assertion_violationPKciS0_(ptr noundef @.str, i32 noundef 289, ptr noundef @.str.1)
  call void @_Z18invoke_exit_actionj(i32 noundef 114)
  br label %37

37:                                               ; preds = %36, %33, %30, %27, %24
  br label %14, !llvm.loop !71

38:                                               ; preds = %19
  %39 = load ptr, ptr %7, align 8, !tbaa !69
  ret ptr %39
}