; Function Attrs: mustprogress uwtable
define hidden noundef nonnull align 8 dereferenceable(8) ptr @_ZNK11tbv_manager7displayERSoRK3tbvjj(ptr nonnull readnone align 8 captures(none) %0, ptr noundef nonnull returned align 8 dereferenceable(8) %1, ptr noundef nonnull readonly align 4 captures(none) dereferenceable(4) %2, i32 noundef %3, i32 noundef %4) local_unnamed_addr #5 align 2 {
  %6 = alloca i8, align 1
  %7 = alloca i8, align 1
  %8 = alloca i8, align 1
  %9 = alloca i8, align 1
  %10 = add i32 %3, 1
  %invariant.gep = getelementptr i8, ptr %1, i64 16
  %11 = icmp ugt i32 %10, %4
  br i1 %11, label %.lr.ph, label %._crit_edge

._crit_edge:                                      ; preds = %63, %5
  ret ptr %1

.lr.ph:                                           ; preds = %5, %63
  %12 = phi i32 [ %64, %63 ], [ %3, %5 ]
  %13 = shl i32 %12, 1
  %14 = lshr i32 %13, 5
  %15 = zext nneg i32 %14 to i64
  %16 = getelementptr inbounds nuw [1 x i32], ptr %2, i64 0, i64 %15
  %17 = load i32, ptr %16, align 4, !tbaa !17
  %18 = and i32 %13, 30
  %19 = shl nuw nsw i32 1, %18
  %20 = and i32 %17, %19
  %.not.i = icmp eq i32 %20, 0
  %21 = select i1 %.not.i, i32 0, i32 2
  %22 = shl nuw i32 2, %18
  %23 = and i32 %17, %22
  %24 = icmp ne i32 %23, 0
  %25 = zext i1 %24 to i32
  %26 = or disjoint i32 %21, %25
  switch i32 %26, label %default.unreachable25 [
    i32 1, label %27
    i32 2, label %36
    i32 3, label %45
    i32 0, label %54
  ]

27:                                               ; preds = %.lr.ph
  call void @llvm.lifetime.start.p0(i64 1, ptr nonnull %9)
  store i8 48, ptr %9, align 1, !tbaa !22
  %28 = load ptr, ptr %1, align 8, !tbaa !49
  %29 = getelementptr i8, ptr %28, i64 -24
  %30 = load i64, ptr %29, align 8
  %gep24 = getelementptr i8, ptr %invariant.gep, i64 %30
  %31 = load i64, ptr %gep24, align 8, !tbaa !51
  %.not.i9 = icmp eq i64 %31, 0
  br i1 %.not.i9, label %34, label %32

32:                                               ; preds = %27
  %33 = call noundef nonnull align 8 dereferenceable(8) ptr @_ZSt16__ostream_insertIcSt11char_traitsIcEERSt13basic_ostreamIT_T0_ES6_PKS3_l(ptr noundef nonnull align 8 dereferenceable(8) %1, ptr noundef nonnull %9, i64 noundef 1)
  br label %_ZStlsISt11char_traitsIcEERSt13basic_ostreamIcT_ES5_c.exit

34:                                               ; preds = %27
  %35 = call noundef nonnull align 8 dereferenceable(8) ptr @_ZNSo3putEc(ptr noundef nonnull align 8 dereferenceable(8) %1, i8 noundef signext 48)
  br label %_ZStlsISt11char_traitsIcEERSt13basic_ostreamIcT_ES5_c.exit

_ZStlsISt11char_traitsIcEERSt13basic_ostreamIcT_ES5_c.exit: ; preds = %32, %34
  call void @llvm.lifetime.end.p0(i64 1, ptr nonnull %9)
  br label %63

36:                                               ; preds = %.lr.ph
  call void @llvm.lifetime.start.p0(i64 1, ptr nonnull %8)
  store i8 49, ptr %8, align 1, !tbaa !22
  %37 = load ptr, ptr %1, align 8, !tbaa !49
  %38 = getelementptr i8, ptr %37, i64 -24
  %39 = load i64, ptr %38, align 8
  %gep22 = getelementptr i8, ptr %invariant.gep, i64 %39
  %40 = load i64, ptr %gep22, align 8, !tbaa !51
  %.not.i10 = icmp eq i64 %40, 0
  br i1 %.not.i10, label %43, label %41

41:                                               ; preds = %36
  %42 = call noundef nonnull align 8 dereferenceable(8) ptr @_ZSt16__ostream_insertIcSt11char_traitsIcEERSt13basic_ostreamIT_T0_ES6_PKS3_l(ptr noundef nonnull align 8 dereferenceable(8) %1, ptr noundef nonnull %8, i64 noundef 1)
  br label %_ZStlsISt11char_traitsIcEERSt13basic_ostreamIcT_ES5_c.exit12

43:                                               ; preds = %36
  %44 = call noundef nonnull align 8 dereferenceable(8) ptr @_ZNSo3putEc(ptr noundef nonnull align 8 dereferenceable(8) %1, i8 noundef signext 49)
  br label %_ZStlsISt11char_traitsIcEERSt13basic_ostreamIcT_ES5_c.exit12

_ZStlsISt11char_traitsIcEERSt13basic_ostreamIcT_ES5_c.exit12: ; preds = %41, %43
  call void @llvm.lifetime.end.p0(i64 1, ptr nonnull %8)
  br label %63

45:                                               ; preds = %.lr.ph
  call void @llvm.lifetime.start.p0(i64 1, ptr nonnull %7)
  store i8 120, ptr %7, align 1, !tbaa !22
  %46 = load ptr, ptr %1, align 8, !tbaa !49
  %47 = getelementptr i8, ptr %46, i64 -24
  %48 = load i64, ptr %47, align 8
  %gep20 = getelementptr i8, ptr %invariant.gep, i64 %48
  %49 = load i64, ptr %gep20, align 8, !tbaa !51
  %.not.i13 = icmp eq i64 %49, 0
  br i1 %.not.i13, label %52, label %50

50:                                               ; preds = %45
  %51 = call noundef nonnull align 8 dereferenceable(8) ptr @_ZSt16__ostream_insertIcSt11char_traitsIcEERSt13basic_ostreamIT_T0_ES6_PKS3_l(ptr noundef nonnull align 8 dereferenceable(8) %1, ptr noundef nonnull %7, i64 noundef 1)
  br label %_ZStlsISt11char_traitsIcEERSt13basic_ostreamIcT_ES5_c.exit15

52:                                               ; preds = %45
  %53 = call noundef nonnull align 8 dereferenceable(8) ptr @_ZNSo3putEc(ptr noundef nonnull align 8 dereferenceable(8) %1, i8 noundef signext 120)
  br label %_ZStlsISt11char_traitsIcEERSt13basic_ostreamIcT_ES5_c.exit15

_ZStlsISt11char_traitsIcEERSt13basic_ostreamIcT_ES5_c.exit15: ; preds = %50, %52
  call void @llvm.lifetime.end.p0(i64 1, ptr nonnull %7)
  br label %63

54:                                               ; preds = %.lr.ph
  call void @llvm.lifetime.start.p0(i64 1, ptr nonnull %6)
  store i8 122, ptr %6, align 1, !tbaa !22
  %55 = load ptr, ptr %1, align 8, !tbaa !49
  %56 = getelementptr i8, ptr %55, i64 -24
  %57 = load i64, ptr %56, align 8
  %gep = getelementptr i8, ptr %invariant.gep, i64 %57
  %58 = load i64, ptr %gep, align 8, !tbaa !51
  %.not.i16 = icmp eq i64 %58, 0
  br i1 %.not.i16, label %61, label %59

59:                                               ; preds = %54
  %60 = call noundef nonnull align 8 dereferenceable(8) ptr @_ZSt16__ostream_insertIcSt11char_traitsIcEERSt13basic_ostreamIT_T0_ES6_PKS3_l(ptr noundef nonnull align 8 dereferenceable(8) %1, ptr noundef nonnull %6, i64 noundef 1)
  br label %_ZStlsISt11char_traitsIcEERSt13basic_ostreamIcT_ES5_c.exit18

61:                                               ; preds = %54
  %62 = call noundef nonnull align 8 dereferenceable(8) ptr @_ZNSo3putEc(ptr noundef nonnull align 8 dereferenceable(8) %1, i8 noundef signext 122)
  br label %_ZStlsISt11char_traitsIcEERSt13basic_ostreamIcT_ES5_c.exit18

_ZStlsISt11char_traitsIcEERSt13basic_ostreamIcT_ES5_c.exit18: ; preds = %59, %61
  call void @llvm.lifetime.end.p0(i64 1, ptr nonnull %6)
  br label %63

default.unreachable25:                            ; preds = %.lr.ph
  unreachable

63:                                               ; preds = %_ZStlsISt11char_traitsIcEERSt13basic_ostreamIcT_ES5_c.exit18, %_ZStlsISt11char_traitsIcEERSt13basic_ostreamIcT_ES5_c.exit15, %_ZStlsISt11char_traitsIcEERSt13basic_ostreamIcT_ES5_c.exit12, %_ZStlsISt11char_traitsIcEERSt13basic_ostreamIcT_ES5_c.exit
  %64 = add i32 %12, -1
  %65 = icmp ugt i32 %12, %4
  br i1 %65, label %.lr.ph, label %._crit_edge, !llvm.loop !60
}